; Function Attrs: mustprogress nounwind uwtable
define hidden void @_ZN8Rewriter24rewrite_method_referenceEPhib(ptr noundef nonnull align 8 dereferenceable(240) %0, ptr noundef %1, i32 noundef %2, i1 noundef zeroext %3) local_unnamed_addr #0 align 2 {
  %5 = sext i32 %2 to i64
  %6 = getelementptr inbounds i8, ptr %1, i64 %5
  %.0.i.i = load i16, ptr %6, align 1
  br i1 %3, label %26, label %7

7:                                                ; preds = %4
  %8 = tail call noundef i16 @llvm.bswap.i16(i16 %.0.i.i)
  %9 = zext i16 %8 to i32
  %10 = getelementptr inbounds i8, ptr %0, i64 40
  %11 = load ptr, ptr %10, align 8
  %12 = zext i16 %8 to i64
  %13 = getelementptr inbounds i32, ptr %11, i64 %12
  %14 = load i32, ptr %13, align 4
  %15 = trunc i32 %14 to i16
  %16 = ptrtoint ptr %6 to i64
  %17 = and i64 %16, 1
  %18 = icmp eq i64 %17, 0
  br i1 %18, label %19, label %20

19:                                               ; preds = %7
  store i16 %15, ptr %6, align 2
  br label %_ZN5Bytes13put_native_u2EPht.exit

20:                                               ; preds = %7
  store i16 %15, ptr %6, align 1
  br label %_ZN5Bytes13put_native_u2EPht.exit

_ZN5Bytes13put_native_u2EPht.exit:                ; preds = %19, %20
  %21 = getelementptr inbounds i8, ptr %0, i64 128
  %22 = load i32, ptr %21, align 8
  %23 = icmp eq i32 %22, 0
  br i1 %23, label %_ZN8Rewriter26maybe_rewrite_invokehandleEPhiib.exit, label %24

24:                                               ; preds = %_ZN5Bytes13put_native_u2EPht.exit
  %25 = getelementptr inbounds i8, ptr %6, i64 -1
  tail call void @_ZN8Rewriter26maybe_rewrite_invokehandleEPhiib(ptr noundef nonnull align 8 dereferenceable(240) %0, ptr noundef nonnull %25, i32 noundef %9, i32 noundef %14, i1 noundef zeroext false)
  br label %_ZN8Rewriter26maybe_rewrite_invokehandleEPhiib.exit

26:                                               ; preds = %4
  %27 = getelementptr inbounds i8, ptr %0, i64 224
  %28 = load ptr, ptr %27, align 8
  %29 = zext i16 %.0.i.i to i64
  %30 = getelementptr inbounds %class.ResolvedMethodEntry, ptr %28, i64 %29, i32 2
  %31 = load i16, ptr %30, align 8
  %32 = tail call noundef i16 @llvm.bswap.i16(i16 %31)
  %33 = ptrtoint ptr %6 to i64
  %34 = and i64 %33, 1
  %35 = icmp eq i64 %34, 0
  br i1 %35, label %36, label %37

36:                                               ; preds = %26
  store i16 %32, ptr %6, align 2
  br label %_ZN5Bytes11put_Java_u2EPht.exit

37:                                               ; preds = %26
  store i16 %32, ptr %6, align 1
  br label %_ZN5Bytes11put_Java_u2EPht.exit

_ZN5Bytes11put_Java_u2EPht.exit:                  ; preds = %36, %37
  %38 = getelementptr inbounds i8, ptr %0, i64 128
  %39 = load i32, ptr %38, align 8
  %40 = icmp eq i32 %39, 0
  br i1 %40, label %_ZN8Rewriter26maybe_rewrite_invokehandleEPhiib.exit, label %41

41:                                               ; preds = %_ZN5Bytes11put_Java_u2EPht.exit
  %42 = getelementptr inbounds i8, ptr %6, i64 -1
  %43 = load i8, ptr %42, align 1
  %44 = icmp eq i8 %43, -23
  br i1 %44, label %.sink.split40.i, label %_ZN8Rewriter26maybe_rewrite_invokehandleEPhiib.exit

.sink.split40.i:                                  ; preds = %41
  store i8 -74, ptr %42, align 1
  br label %_ZN8Rewriter26maybe_rewrite_invokehandleEPhiib.exit

_ZN8Rewriter26maybe_rewrite_invokehandleEPhiib.exit: ; preds = %.sink.split40.i, %41, %_ZN5Bytes11put_Java_u2EPht.exit, %_ZN5Bytes13put_native_u2EPht.exit, %24
  ret void
}